; Function Attrs: mustprogress uwtable
define internal fastcc void @_ZN7testing8internalL17GetCapturedStreamB5cxx11EPPNS0_14CapturedStreamE(ptr dead_on_unwind noalias writable align 8 %0, ptr noundef captures(none) %1) unnamed_addr #4 personality ptr @__gxx_personality_v0 {
  %3 = load ptr, ptr %1, align 8, !tbaa !1670
  %4 = getelementptr inbounds nuw i8, ptr %3, i64 4
  %5 = load i32, ptr %4, align 4, !tbaa !1672, !noalias !1674
  %.not.i = icmp eq i32 %5, -1
  br i1 %.not.i, label %_ZN7testing8internal14CapturedStream17GetCapturedStringB5cxx11Ev.exit, label %6

6:                                                ; preds = %2
  %7 = tail call i32 @fflush(ptr noundef null), !noalias !1674
  %8 = load i32, ptr %4, align 4, !tbaa !1672, !noalias !1674
  %9 = load i32, ptr %3, align 8, !tbaa !1677, !noalias !1674
  %10 = tail call i32 @dup2(i32 noundef %8, i32 noundef %9) #56, !noalias !1674
  %11 = load i32, ptr %4, align 4, !tbaa !1672, !noalias !1674
  %12 = tail call i32 @close(i32 noundef %11), !noalias !1674
  store i32 -1, ptr %4, align 4, !tbaa !1672, !noalias !1674
  br label %_ZN7testing8internal14CapturedStream17GetCapturedStringB5cxx11Ev.exit

_ZN7testing8internal14CapturedStream17GetCapturedStringB5cxx11Ev.exit: ; preds = %2, %6
  %13 = getelementptr inbounds nuw i8, ptr %3, i64 8
  %14 = load ptr, ptr %13, align 8, !tbaa !3, !noalias !1674
  %15 = tail call noalias noundef ptr @fopen(ptr noundef %14, ptr noundef nonnull @.str.473), !noalias !1674
  tail call void @_ZN7testing8internal14ReadEntireFileB5cxx11EP8_IO_FILE(ptr dead_on_unwind writable sret(%"class.std::__cxx11::basic_string") align 8 %0, ptr noundef %15)
  %16 = tail call noundef i32 @fclose(ptr noundef %15)
  %17 = load ptr, ptr %1, align 8, !tbaa !1670
  %18 = icmp eq ptr %17, null
  br i1 %18, label %29, label %19

19:                                               ; preds = %_ZN7testing8internal14CapturedStream17GetCapturedStringB5cxx11Ev.exit
  %20 = getelementptr inbounds nuw i8, ptr %17, i64 8
  %21 = load ptr, ptr %20, align 8, !tbaa !3
  %22 = tail call i32 @remove(ptr noundef %21) #56
  %23 = load ptr, ptr %20, align 8, !tbaa !3
  %24 = getelementptr inbounds nuw i8, ptr %17, i64 24
  %25 = icmp eq ptr %23, %24
  br i1 %25, label %_ZNKSt7__cxx1112basic_stringIcSt11char_traitsIcESaIcEE11_M_is_localEv.exit.thread.i.i.i, label %_ZNKSt7__cxx1112basic_stringIcSt11char_traitsIcESaIcEE11_M_is_localEv.exit.i.i.i

_ZNKSt7__cxx1112basic_stringIcSt11char_traitsIcESaIcEE11_M_is_localEv.exit.thread.i.i.i: ; preds = %19
  %26 = getelementptr inbounds nuw i8, ptr %17, i64 16
  %27 = load i64, ptr %26, align 8, !tbaa !11
  %28 = icmp ult i64 %27, 16
  tail call void @llvm.assume(i1 %28)
  br label %_ZN7testing8internal14CapturedStreamD2Ev.exit

_ZNKSt7__cxx1112basic_stringIcSt11char_traitsIcESaIcEE11_M_is_localEv.exit.i.i.i: ; preds = %19
  tail call void @_ZdlPv(ptr noundef %23) #57
  br label %_ZN7testing8internal14CapturedStreamD2Ev.exit

_ZN7testing8internal14CapturedStreamD2Ev.exit:    ; preds = %_ZNKSt7__cxx1112basic_stringIcSt11char_traitsIcESaIcEE11_M_is_localEv.exit.thread.i.i.i, %_ZNKSt7__cxx1112basic_stringIcSt11char_traitsIcESaIcEE11_M_is_localEv.exit.i.i.i
  tail call void @_ZdlPv(ptr noundef nonnull %17) #57
  br label %29

29:                                               ; preds = %_ZN7testing8internal14CapturedStreamD2Ev.exit, %_ZN7testing8internal14CapturedStream17GetCapturedStringB5cxx11Ev.exit
  store ptr null, ptr %1, align 8, !tbaa !1670
  ret void
}